target datalayout = "e-m:e-p270:32:32-p271:32:32-p272:64:64-i64:64-i128:128-f80:128-n8:16:32:64-S128"
target triple = "x86_64-pc-linux-gnu"

%struct.qtest_fault = type { ptr, %struct.quic_pkt_hdr_st, %struct.ossl_qtx_iovec_st, i64, ptr, ptr, ptr, i64, i64, ptr, ptr, ptr, ptr, ptr, ptr, ptr, ptr, %struct.bio_msg_st, i64, %struct.noise_args_data_st }
%struct.quic_pkt_hdr_st = type { i32, i32, %struct.quic_conn_id_st, %struct.quic_conn_id_st, [4 x i8], ptr, i64, i64, ptr }
%struct.quic_conn_id_st = type { i8, [20 x i8] }
%struct.ossl_qtx_iovec_st = type { ptr, i64 }
%struct.bio_msg_st = type { ptr, i64, ptr, ptr, i64 }
%struct.noise_args_data_st = type { ptr, ptr, ptr, i32 }
%struct.PACKET = type { ptr, i64 }
%struct.qtest_fault_encrypted_extensions = type { ptr, i64 }

@.str = private unnamed_addr constant [38 x i8] c"../openssl/test/helpers/quictestlib.c\00", align 1

; Function Attrs: inlinehint nounwind uwtable
define internal i32 @PACKET_peek_net_3(ptr noundef %0, ptr noundef %1) #5 {
  %3 = alloca i32, align 4
  %4 = alloca ptr, align 8
  %5 = alloca ptr, align 8
  store ptr %0, ptr %4, align 8, !tbaa !56
  store ptr %1, ptr %5, align 8, !tbaa !80
  %6 = load ptr, ptr %4, align 8, !tbaa !56
  %7 = call i64 @PACKET_remaining(ptr noundef %6)
  %8 = icmp ult i64 %7, 3
  br i1 %8, label %9, label %10

9:                                                ; preds = %2
  store i32 0, ptr %3, align 4
  br label %37

10:                                               ; preds = %2
  %11 = load ptr, ptr %4, align 8, !tbaa !56
  %12 = getelementptr inbounds nuw %struct.PACKET, ptr %11, i32 0, i32 0
  %13 = load ptr, ptr %12, align 8, !tbaa !123
  %14 = load i8, ptr %13, align 1, !tbaa !77
  %15 = zext i8 %14 to i64
  %16 = shl i64 %15, 16
  %17 = load ptr, ptr %5, align 8, !tbaa !80
  store i64 %16, ptr %17, align 8, !tbaa !62
  %18 = load ptr, ptr %4, align 8, !tbaa !56
  %19 = getelementptr inbounds nuw %struct.PACKET, ptr %18, i32 0, i32 0
  %20 = load ptr, ptr %19, align 8, !tbaa !123
  %21 = getelementptr inbounds i8, ptr %20, i64 1
  %22 = load i8, ptr %21, align 1, !tbaa !77
  %23 = zext i8 %22 to i64
  %24 = shl i64 %23, 8
  %25 = load ptr, ptr %5, align 8, !tbaa !80
  %26 = load i64, ptr %25, align 8, !tbaa !62
  %27 = or i64 %26, %24
  store i64 %27, ptr %25, align 8, !tbaa !62
  %28 = load ptr, ptr %4, align 8, !tbaa !56
  %29 = getelementptr inbounds nuw %struct.PACKET, ptr %28, i32 0, i32 0
  %30 = load ptr, ptr %29, align 8, !tbaa !123
  %31 = getelementptr inbounds i8, ptr %30, i64 2
  %32 = load i8, ptr %31, align 1, !tbaa !77
  %33 = zext i8 %32 to i64
  %34 = load ptr, ptr %5, align 8, !tbaa !80
  %35 = load i64, ptr %34, align 8, !tbaa !62
  %36 = or i64 %35, %33
  store i64 %36, ptr %34, align 8, !tbaa !62
  store i32 1, ptr %3, align 4
  br label %37

37:                                               ; preds = %10, %9
  %38 = load i32, ptr %3, align 4
  ret i32 %38
}

; Function Attrs: inlinehint nounwind uwtable
define internal void @packet_forward(ptr noundef %0, i64 noundef %1) #5 {
  %3 = alloca ptr, align 8
  %4 = alloca i64, align 8
  store ptr %0, ptr %3, align 8, !tbaa !56
  store i64 %1, ptr %4, align 8, !tbaa !62
  %5 = load i64, ptr %4, align 8, !tbaa !62
  %6 = load ptr, ptr %3, align 8, !tbaa !56
  %7 = getelementptr inbounds nuw %struct.PACKET, ptr %6, i32 0, i32 0
  %8 = load ptr, ptr %7, align 8, !tbaa !123
  %9 = getelementptr inbounds nuw i8, ptr %8, i64 %5
  store ptr %9, ptr %7, align 8, !tbaa !123
  %10 = load i64, ptr %4, align 8, !tbaa !62
  %11 = load ptr, ptr %3, align 8, !tbaa !56
  %12 = getelementptr inbounds nuw %struct.PACKET, ptr %11, i32 0, i32 1
  %13 = load i64, ptr %12, align 8, !tbaa !125
  %14 = sub i64 %13, %10
  store i64 %14, ptr %12, align 8, !tbaa !125
  ret void
}

; Function Attrs: inlinehint nounwind uwtable
define internal i32 @PACKET_peek_1(ptr noundef %0, ptr noundef %1) #5 {
  %3 = alloca i32, align 4
  %4 = alloca ptr, align 8
  %5 = alloca ptr, align 8
  store ptr %0, ptr %4, align 8, !tbaa !56
  store ptr %1, ptr %5, align 8, !tbaa !127
  %6 = load ptr, ptr %4, align 8, !tbaa !56
  %7 = call i64 @PACKET_remaining(ptr noundef %6)
  %8 = icmp ne i64 %7, 0
  br i1 %8, label %10, label %9

9:                                                ; preds = %2
  store i32 0, ptr %3, align 4
  br label %17

10:                                               ; preds = %2
  %11 = load ptr, ptr %4, align 8, !tbaa !56
  %12 = getelementptr inbounds nuw %struct.PACKET, ptr %11, i32 0, i32 0
  %13 = load ptr, ptr %12, align 8, !tbaa !123
  %14 = load i8, ptr %13, align 1, !tbaa !77
  %15 = zext i8 %14 to i32
  %16 = load ptr, ptr %5, align 8, !tbaa !127
  store i32 %15, ptr %16, align 4, !tbaa !13
  store i32 1, ptr %3, align 4
  br label %17

17:                                               ; preds = %10, %9
  %18 = load i32, ptr %3, align 4
  ret i32 %18
}

; Function Attrs: inlinehint nounwind uwtable
define internal ptr @PACKET_data(ptr noundef %0) #5 {
  %2 = alloca ptr, align 8
  store ptr %0, ptr %2, align 8, !tbaa !56
  %3 = load ptr, ptr %2, align 8, !tbaa !56
  %4 = getelementptr inbounds nuw %struct.PACKET, ptr %3, i32 0, i32 0
  %5 = load ptr, ptr %4, align 8, !tbaa !123
  ret ptr %5
}

; Function Attrs: inlinehint nounwind uwtable
define internal i64 @PACKET_remaining(ptr noundef %0) #5 {
  %2 = alloca ptr, align 8
  store ptr %0, ptr %2, align 8, !tbaa !56
  %3 = load ptr, ptr %2, align 8, !tbaa !56
  %4 = getelementptr inbounds nuw %struct.PACKET, ptr %3, i32 0, i32 1
  %5 = load i64, ptr %4, align 8, !tbaa !125
  ret i64 %5
}

; Function Attrs: inlinehint nounwind uwtable
define internal i32 @PACKET_get_net_3(ptr noundef %0, ptr noundef %1) #5 {
  %3 = alloca i32, align 4
  %4 = alloca ptr, align 8
  %5 = alloca ptr, align 8
  store ptr %0, ptr %4, align 8, !tbaa !56
  store ptr %1, ptr %5, align 8, !tbaa !80
  %6 = load ptr, ptr %4, align 8, !tbaa !56
  %7 = load ptr, ptr %5, align 8, !tbaa !80
  %8 = call i32 @PACKET_peek_net_3(ptr noundef %6, ptr noundef %7)
  %9 = icmp ne i32 %8, 0
  br i1 %9, label %11, label %10

10:                                               ; preds = %2
  store i32 0, ptr %3, align 4
  br label %13

11:                                               ; preds = %2
  %12 = load ptr, ptr %4, align 8, !tbaa !56
  call void @packet_forward(ptr noundef %12, i64 noundef 3)
  store i32 1, ptr %3, align 4
  br label %13

13:                                               ; preds = %11, %10
  %14 = load i32, ptr %3, align 4
  ret i32 %14
}

; Function Attrs: inlinehint nounwind uwtable
define internal i32 @PACKET_get_1(ptr noundef %0, ptr noundef %1) #5 {
  %3 = alloca i32, align 4
  %4 = alloca ptr, align 8
  %5 = alloca ptr, align 8
  store ptr %0, ptr %4, align 8, !tbaa !56
  store ptr %1, ptr %5, align 8, !tbaa !127
  %6 = load ptr, ptr %4, align 8, !tbaa !56
  %7 = load ptr, ptr %5, align 8, !tbaa !127
  %8 = call i32 @PACKET_peek_1(ptr noundef %6, ptr noundef %7)
  %9 = icmp ne i32 %8, 0
  br i1 %9, label %11, label %10

10:                                               ; preds = %2
  store i32 0, ptr %3, align 4
  br label %13

11:                                               ; preds = %2
  %12 = load ptr, ptr %4, align 8, !tbaa !56
  call void @packet_forward(ptr noundef %12, i64 noundef 1)
  store i32 1, ptr %3, align 4
  br label %13

13:                                               ; preds = %11, %10
  %14 = load i32, ptr %3, align 4
  ret i32 %14
}

; Function Attrs: inlinehint nounwind uwtable
define internal i32 @PACKET_buf_init(ptr noundef %0, ptr noundef %1, i64 noundef %2) #5 {
  %4 = alloca i32, align 4
  %5 = alloca ptr, align 8
  %6 = alloca ptr, align 8
  %7 = alloca i64, align 8
  store ptr %0, ptr %5, align 8, !tbaa !56
  store ptr %1, ptr %6, align 8, !tbaa !11
  store i64 %2, ptr %7, align 8, !tbaa !62
  %8 = load i64, ptr %7, align 8, !tbaa !62
  %9 = icmp ugt i64 %8, 9223372036854775807
  br i1 %9, label %10, label %11

10:                                               ; preds = %3
  store i32 0, ptr %4, align 4
  br label %18

11:                                               ; preds = %3
  %12 = load ptr, ptr %6, align 8, !tbaa !11
  %13 = load ptr, ptr %5, align 8, !tbaa !56
  %14 = getelementptr inbounds nuw %struct.PACKET, ptr %13, i32 0, i32 0
  store ptr %12, ptr %14, align 8, !tbaa !123
  %15 = load i64, ptr %7, align 8, !tbaa !62
  %16 = load ptr, ptr %5, align 8, !tbaa !56
  %17 = getelementptr inbounds nuw %struct.PACKET, ptr %16, i32 0, i32 1
  store i64 %15, ptr %17, align 8, !tbaa !125
  store i32 1, ptr %4, align 4
  br label %18

18:                                               ; preds = %11, %10
  %19 = load i32, ptr %4, align 4
  ret i32 %19
}

; Function Attrs: nounwind uwtable
define internal i32 @handshake_mutate(ptr noundef %0, i64 noundef %1, ptr noundef %2, ptr noundef %3, ptr noundef %4) #0 {
  %6 = alloca i32, align 4
  %7 = alloca ptr, align 8
  %8 = alloca i64, align 8
  %9 = alloca ptr, align 8
  %10 = alloca ptr, align 8
  %11 = alloca ptr, align 8
  %12 = alloca ptr, align 8
  %13 = alloca ptr, align 8
  %14 = alloca i64, align 8
  %15 = alloca i32, align 4
  %16 = alloca %struct.PACKET, align 8
  %17 = alloca i32, align 4
  %18 = alloca %struct.qtest_fault_encrypted_extensions, align 8
  store ptr %0, ptr %7, align 8, !tbaa !11
  store i64 %1, ptr %8, align 8, !tbaa !62
  store ptr %2, ptr %9, align 8, !tbaa !109
  store ptr %3, ptr %10, align 8, !tbaa !80
  store ptr %4, ptr %11, align 8, !tbaa !56
  call void @llvm.lifetime.start.p0(i64 8, ptr %12) #8
  %19 = load ptr, ptr %11, align 8, !tbaa !56
  store ptr %19, ptr %12, align 8, !tbaa !33
  call void @llvm.lifetime.start.p0(i64 8, ptr %13) #8
  call void @llvm.lifetime.start.p0(i64 8, ptr %14) #8
  call void @llvm.lifetime.start.p0(i64 4, ptr %15) #8
  call void @llvm.lifetime.start.p0(i64 16, ptr %16) #8
  %20 = load i64, ptr %8, align 8, !tbaa !62
  %21 = add i64 %20, 1024
  %22 = call noalias ptr @CRYPTO_malloc(i64 noundef %21, ptr noundef @.str, i32 noundef 875)
  store ptr %22, ptr %13, align 8, !tbaa !11
  %23 = load ptr, ptr %13, align 8, !tbaa !11
  %24 = icmp eq ptr %23, null
  br i1 %24, label %25, label %26

25:                                               ; preds = %5
  store i32 0, ptr %6, align 4
  store i32 1, ptr %17, align 4
  br label %111

26:                                               ; preds = %5
  %27 = load ptr, ptr %13, align 8, !tbaa !11
  %28 = load ptr, ptr %12, align 8, !tbaa !33
  %29 = getelementptr inbounds nuw %struct.qtest_fault, ptr %28, i32 0, i32 6
  store ptr %27, ptr %29, align 8, !tbaa !90
  %30 = load i64, ptr %8, align 8, !tbaa !62
  %31 = load ptr, ptr %12, align 8, !tbaa !33
  %32 = getelementptr inbounds nuw %struct.qtest_fault, ptr %31, i32 0, i32 8
  store i64 %30, ptr %32, align 8, !tbaa !111
  %33 = load i64, ptr %8, align 8, !tbaa !62
  %34 = add i64 %33, 1024
  %35 = load ptr, ptr %12, align 8, !tbaa !33
  %36 = getelementptr inbounds nuw %struct.qtest_fault, ptr %35, i32 0, i32 7
  store i64 %34, ptr %36, align 8, !tbaa !112
  %37 = load ptr, ptr %13, align 8, !tbaa !11
  %38 = load ptr, ptr %7, align 8, !tbaa !11
  %39 = load i64, ptr %8, align 8, !tbaa !62
  call void @llvm.memcpy.p0.p0.i64(ptr align 1 %37, ptr align 1 %38, i64 %39, i1 false)
  %40 = load ptr, ptr %13, align 8, !tbaa !11
  %41 = load i64, ptr %8, align 8, !tbaa !62
  %42 = call i32 @PACKET_buf_init(ptr noundef %16, ptr noundef %40, i64 noundef %41)
  %43 = icmp ne i32 %42, 0
  br i1 %43, label %44, label %54

44:                                               ; preds = %26
  %45 = call i32 @PACKET_get_1(ptr noundef %16, ptr noundef %15)
  %46 = icmp ne i32 %45, 0
  br i1 %46, label %47, label %54

47:                                               ; preds = %44
  %48 = call i32 @PACKET_get_net_3(ptr noundef %16, ptr noundef %14)
  %49 = icmp ne i32 %48, 0
  br i1 %49, label %50, label %54

50:                                               ; preds = %47
  %51 = call i64 @PACKET_remaining(ptr noundef %16)
  %52 = load i64, ptr %14, align 8, !tbaa !62
  %53 = icmp ne i64 %51, %52
  br i1 %53, label %54, label %55

54:                                               ; preds = %50, %47, %44, %26
  store i32 0, ptr %6, align 4
  store i32 1, ptr %17, align 4
  br label %111

55:                                               ; preds = %50
  %56 = load i32, ptr %15, align 4, !tbaa !13
  switch i32 %56, label %83 [
    i32 8, label %57
  ]

57:                                               ; preds = %55
  call void @llvm.lifetime.start.p0(i64 16, ptr %18) #8
  %58 = load ptr, ptr %12, align 8, !tbaa !33
  %59 = getelementptr inbounds nuw %struct.qtest_fault, ptr %58, i32 0, i32 11
  %60 = load ptr, ptr %59, align 8, !tbaa !113
  %61 = icmp eq ptr %60, null
  br i1 %61, label %62, label %63

62:                                               ; preds = %57
  store i32 2, ptr %17, align 4
  br label %80

63:                                               ; preds = %57
  %64 = call ptr @PACKET_data(ptr noundef %16)
  %65 = getelementptr inbounds nuw %struct.qtest_fault_encrypted_extensions, ptr %18, i32 0, i32 0
  store ptr %64, ptr %65, align 8, !tbaa !114
  %66 = load i64, ptr %14, align 8, !tbaa !62
  %67 = getelementptr inbounds nuw %struct.qtest_fault_encrypted_extensions, ptr %18, i32 0, i32 1
  store i64 %66, ptr %67, align 8, !tbaa !116
  %68 = load ptr, ptr %12, align 8, !tbaa !33
  %69 = getelementptr inbounds nuw %struct.qtest_fault, ptr %68, i32 0, i32 11
  %70 = load ptr, ptr %69, align 8, !tbaa !113
  %71 = load ptr, ptr %12, align 8, !tbaa !33
  %72 = load i64, ptr %14, align 8, !tbaa !62
  %73 = load ptr, ptr %12, align 8, !tbaa !33
  %74 = getelementptr inbounds nuw %struct.qtest_fault, ptr %73, i32 0, i32 12
  %75 = load ptr, ptr %74, align 8, !tbaa !117
  %76 = call i32 %70(ptr noundef %71, ptr noundef %18, i64 noundef %72, ptr noundef %75)
  %77 = icmp ne i32 %76, 0
  br i1 %77, label %79, label %78

78:                                               ; preds = %63
  store i32 0, ptr %6, align 4
  store i32 1, ptr %17, align 4
  br label %80

79:                                               ; preds = %63
  store i32 0, ptr %17, align 4
  br label %80

80:                                               ; preds = %79, %78, %62
  call void @llvm.lifetime.end.p0(i64 16, ptr %18) #8
  %81 = load i32, ptr %17, align 4
  switch i32 %81, label %111 [
    i32 0, label %82
    i32 2, label %84
  ]

82:                                               ; preds = %80
  br label %83

83:                                               ; preds = %55, %82
  br label %84

84:                                               ; preds = %83, %80
  %85 = load ptr, ptr %12, align 8, !tbaa !33
  %86 = getelementptr inbounds nuw %struct.qtest_fault, ptr %85, i32 0, i32 9
  %87 = load ptr, ptr %86, align 8, !tbaa !107
  %88 = icmp ne ptr %87, null
  br i1 %88, label %89, label %104

89:                                               ; preds = %84
  %90 = load ptr, ptr %12, align 8, !tbaa !33
  %91 = getelementptr inbounds nuw %struct.qtest_fault, ptr %90, i32 0, i32 9
  %92 = load ptr, ptr %91, align 8, !tbaa !107
  %93 = load ptr, ptr %12, align 8, !tbaa !33
  %94 = load ptr, ptr %13, align 8, !tbaa !11
  %95 = load ptr, ptr %12, align 8, !tbaa !33
  %96 = getelementptr inbounds nuw %struct.qtest_fault, ptr %95, i32 0, i32 8
  %97 = load i64, ptr %96, align 8, !tbaa !111
  %98 = load ptr, ptr %12, align 8, !tbaa !33
  %99 = getelementptr inbounds nuw %struct.qtest_fault, ptr %98, i32 0, i32 10
  %100 = load ptr, ptr %99, align 8, !tbaa !108
  %101 = call i32 %92(ptr noundef %93, ptr noundef %94, i64 noundef %97, ptr noundef %100)
  %102 = icmp ne i32 %101, 0
  br i1 %102, label %104, label %103

103:                                              ; preds = %89
  store i32 0, ptr %6, align 4
  store i32 1, ptr %17, align 4
  br label %111

104:                                              ; preds = %89, %84
  %105 = load ptr, ptr %13, align 8, !tbaa !11
  %106 = load ptr, ptr %9, align 8, !tbaa !109
  store ptr %105, ptr %106, align 8, !tbaa !11
  %107 = load ptr, ptr %12, align 8, !tbaa !33
  %108 = getelementptr inbounds nuw %struct.qtest_fault, ptr %107, i32 0, i32 8
  %109 = load i64, ptr %108, align 8, !tbaa !111
  %110 = load ptr, ptr %10, align 8, !tbaa !80
  store i64 %109, ptr %110, align 8, !tbaa !62
  store i32 1, ptr %6, align 4
  store i32 1, ptr %17, align 4
  br label %111

111:                                              ; preds = %104, %103, %80, %54, %25
  call void @llvm.lifetime.end.p0(i64 16, ptr %16) #8
  call void @llvm.lifetime.end.p0(i64 4, ptr %15) #8
  call void @llvm.lifetime.end.p0(i64 8, ptr %14) #8
  call void @llvm.lifetime.end.p0(i64 8, ptr %13) #8
  call void @llvm.lifetime.end.p0(i64 8, ptr %12) #8
  %112 = load i32, ptr %6, align 4
  ret i32 %112
}