; Function Attrs: nounwind uwtable
define internal range(i32 0, 2) i32 @handshake_mutate(ptr noundef readonly captures(none) %0, i64 noundef %1, ptr noundef writeonly captures(none) %2, ptr noundef writeonly captures(none) %3, ptr noundef %4) #0 {
  %6 = alloca %struct.qtest_fault_encrypted_extensions, align 8
  %7 = add i64 %1, 1024
  %8 = tail call noalias ptr @CRYPTO_malloc(i64 noundef %7, ptr noundef nonnull @.str, i32 noundef 875) #10
  %9 = icmp eq ptr %8, null
  br i1 %9, label %PACKET_buf_init.exit.thread, label %10

10:                                               ; preds = %5
  %11 = getelementptr inbounds nuw i8, ptr %4, i64 136
  store ptr %8, ptr %11, align 8, !tbaa !63
  %12 = getelementptr inbounds nuw i8, ptr %4, i64 152
  store i64 %1, ptr %12, align 8, !tbaa !81
  %13 = getelementptr inbounds nuw i8, ptr %4, i64 144
  store i64 %7, ptr %13, align 8, !tbaa !82
  tail call void @llvm.memcpy.p0.p0.i64(ptr nonnull align 1 %8, ptr align 1 %0, i64 %1, i1 false)
  %or.cond = icmp slt i64 %1, 1
  br i1 %or.cond, label %PACKET_buf_init.exit.thread, label %14

14:                                               ; preds = %10
  %15 = load i8, ptr %8, align 1, !tbaa !56
  %16 = icmp samesign ult i64 %1, 4
  br i1 %16, label %PACKET_buf_init.exit.thread, label %17

17:                                               ; preds = %14
  %18 = getelementptr inbounds nuw i8, ptr %8, i64 1
  %19 = load i8, ptr %18, align 1, !tbaa !56
  %20 = zext i8 %19 to i64
  %21 = shl nuw nsw i64 %20, 16
  %22 = getelementptr inbounds nuw i8, ptr %8, i64 2
  %23 = load i8, ptr %22, align 1, !tbaa !56
  %24 = zext i8 %23 to i64
  %25 = shl nuw nsw i64 %24, 8
  %26 = or disjoint i64 %25, %21
  %27 = getelementptr inbounds nuw i8, ptr %8, i64 3
  %28 = load i8, ptr %27, align 1, !tbaa !56
  %29 = zext i8 %28 to i64
  %30 = or disjoint i64 %26, %29
  %31 = getelementptr inbounds nuw i8, ptr %8, i64 4
  %32 = add nsw i64 %1, -4
  %.not34 = icmp eq i64 %32, %30
  br i1 %.not34, label %33, label %PACKET_buf_init.exit.thread

33:                                               ; preds = %17
  %cond = icmp eq i8 %15, 8
  br i1 %cond, label %34, label %44

34:                                               ; preds = %33
  call void @llvm.lifetime.start.p0(i64 16, ptr nonnull %6) #10
  %35 = getelementptr inbounds nuw i8, ptr %4, i64 176
  %36 = load ptr, ptr %35, align 8, !tbaa !83
  %37 = icmp eq ptr %36, null
  br i1 %37, label %.thread, label %38

38:                                               ; preds = %34
  store ptr %31, ptr %6, align 8, !tbaa !84
  %39 = getelementptr inbounds nuw i8, ptr %6, i64 8
  store i64 %30, ptr %39, align 8, !tbaa !86
  %40 = getelementptr inbounds nuw i8, ptr %4, i64 184
  %41 = load ptr, ptr %40, align 8, !tbaa !87
  %42 = call i32 %36(ptr noundef nonnull %4, ptr noundef nonnull %6, i64 noundef %30, ptr noundef %41) #10
  %.not35 = icmp eq i32 %42, 0
  br i1 %.not35, label %43, label %..thread_crit_edge

..thread_crit_edge:                               ; preds = %38
  %.pre63.pre.pre = load i64, ptr %12, align 8, !tbaa !81
  br label %.thread

.thread:                                          ; preds = %..thread_crit_edge, %34
  %.pre63.pre = phi i64 [ %.pre63.pre.pre, %..thread_crit_edge ], [ %1, %34 ]
  call void @llvm.lifetime.end.p0(i64 16, ptr nonnull %6) #10
  br label %44

43:                                               ; preds = %38
  call void @llvm.lifetime.end.p0(i64 16, ptr nonnull %6) #10
  br label %PACKET_buf_init.exit.thread

44:                                               ; preds = %.thread, %33
  %.pre63 = phi i64 [ %.pre63.pre, %.thread ], [ %1, %33 ]
  %45 = getelementptr inbounds nuw i8, ptr %4, i64 160
  %46 = load ptr, ptr %45, align 8, !tbaa !79
  %.not36 = icmp eq ptr %46, null
  br i1 %.not36, label %51, label %47

47:                                               ; preds = %44
  %48 = getelementptr inbounds nuw i8, ptr %4, i64 168
  %49 = load ptr, ptr %48, align 8, !tbaa !80
  %50 = call i32 %46(ptr noundef nonnull %4, ptr noundef nonnull %8, i64 noundef %.pre63, ptr noundef %49) #10
  %.not37 = icmp eq i32 %50, 0
  br i1 %.not37, label %PACKET_buf_init.exit.thread, label %._crit_edge

._crit_edge:                                      ; preds = %47
  %.pre = load i64, ptr %12, align 8, !tbaa !81
  br label %51

51:                                               ; preds = %._crit_edge, %44
  %52 = phi i64 [ %.pre, %._crit_edge ], [ %.pre63, %44 ]
  store ptr %8, ptr %2, align 8, !tbaa !73
  store i64 %52, ptr %3, align 8, !tbaa !46
  br label %PACKET_buf_init.exit.thread

PACKET_buf_init.exit.thread:                      ; preds = %14, %10, %43, %47, %17, %5, %51
  %.029 = phi i32 [ 0, %43 ], [ 1, %51 ], [ 0, %5 ], [ 0, %17 ], [ 0, %47 ], [ 0, %10 ], [ 0, %14 ]
  ret i32 %.029
}